target datalayout = "e-m:e-p270:32:32-p271:32:32-p272:64:64-i64:64-i128:128-f80:128-n8:16:32:64-S128"
target triple = "x86_64-pc-linux-gnu"

%struct.AVFilterContext = type { ptr, ptr, ptr, ptr, ptr, i32, ptr, ptr, i32, ptr, ptr, i32, i32, ptr, ptr, ptr, ptr, i32, ptr, i32, i32 }
%struct.ATiltContext = type { ptr, double, double, double, double, i32, [30 x %struct.Coeffs], ptr, ptr }
%struct.Coeffs = type { double, double, double, double }
%struct.ThreadData = type { ptr, ptr }
%struct.AVChannelLayout = type { i32, i32, %union.anon.1, ptr }
%union.anon.1 = type { i64 }
%struct.AVRational = type { i32, i32 }
%struct.AVFrame = type { [8 x ptr], [8 x i32], ptr, i32, i32, i32, i32, i32, %struct.AVRational, i64, i64, %struct.AVRational, i32, ptr, i32, i32, [8 x ptr], ptr, i32, ptr, i32, i32, i32, i32, i32, i32, i32, i64, ptr, i32, ptr, ptr, i64, i64, i64, i64, ptr, %struct.AVChannelLayout, i64 }

; Function Attrs: nounwind uwtable
define internal i32 @filter_channels_fltp(ptr noundef %0, ptr noundef %1, i32 noundef %2, i32 noundef %3) #1 {
  %5 = alloca ptr, align 8
  %6 = alloca ptr, align 8
  %7 = alloca i32, align 4
  %8 = alloca i32, align 4
  %9 = alloca ptr, align 8
  %10 = alloca ptr, align 8
  %11 = alloca ptr, align 8
  %12 = alloca ptr, align 8
  %13 = alloca i32, align 4
  %14 = alloca i32, align 4
  %15 = alloca float, align 4
  %16 = alloca i32, align 4
  %17 = alloca i32, align 4
  %18 = alloca ptr, align 8
  %19 = alloca ptr, align 8
  %20 = alloca i32, align 4
  %21 = alloca ptr, align 8
  %22 = alloca float, align 4
  %23 = alloca float, align 4
  %24 = alloca float, align 4
  %25 = alloca float, align 4
  %26 = alloca ptr, align 8
  %27 = alloca i32, align 4
  %28 = alloca float, align 4
  %29 = alloca float, align 4
  store ptr %0, ptr %5, align 8, !tbaa !4
  store ptr %1, ptr %6, align 8, !tbaa !54
  store i32 %2, ptr %7, align 4, !tbaa !25
  store i32 %3, ptr %8, align 4, !tbaa !25
  call void @llvm.lifetime.start.p0(i64 8, ptr %9) #6
  %30 = load ptr, ptr %5, align 8, !tbaa !4
  %31 = getelementptr inbounds nuw %struct.AVFilterContext, ptr %30, i32 0, i32 9
  %32 = load ptr, ptr %31, align 8, !tbaa !9
  store ptr %32, ptr %9, align 8, !tbaa !22
  call void @llvm.lifetime.start.p0(i64 8, ptr %10) #6
  %33 = load ptr, ptr %6, align 8, !tbaa !54
  store ptr %33, ptr %10, align 8, !tbaa !55
  call void @llvm.lifetime.start.p0(i64 8, ptr %11) #6
  %34 = load ptr, ptr %10, align 8, !tbaa !55
  %35 = getelementptr inbounds nuw %struct.ThreadData, ptr %34, i32 0, i32 1
  %36 = load ptr, ptr %35, align 8, !tbaa !47
  store ptr %36, ptr %11, align 8, !tbaa !28
  call void @llvm.lifetime.start.p0(i64 8, ptr %12) #6
  %37 = load ptr, ptr %10, align 8, !tbaa !55
  %38 = getelementptr inbounds nuw %struct.ThreadData, ptr %37, i32 0, i32 0
  %39 = load ptr, ptr %38, align 8, !tbaa !45
  store ptr %39, ptr %12, align 8, !tbaa !28
  call void @llvm.lifetime.start.p0(i64 4, ptr %13) #6
  %40 = load ptr, ptr %12, align 8, !tbaa !28
  %41 = getelementptr inbounds nuw %struct.AVFrame, ptr %40, i32 0, i32 37
  %42 = getelementptr inbounds nuw %struct.AVChannelLayout, ptr %41, i32 0, i32 1
  %43 = load i32, ptr %42, align 4, !tbaa !57
  %44 = load i32, ptr %7, align 4, !tbaa !25
  %45 = mul nsw i32 %43, %44
  %46 = load i32, ptr %8, align 4, !tbaa !25
  %47 = sdiv i32 %45, %46
  store i32 %47, ptr %13, align 4, !tbaa !25
  call void @llvm.lifetime.start.p0(i64 4, ptr %14) #6
  %48 = load ptr, ptr %12, align 8, !tbaa !28
  %49 = getelementptr inbounds nuw %struct.AVFrame, ptr %48, i32 0, i32 37
  %50 = getelementptr inbounds nuw %struct.AVChannelLayout, ptr %49, i32 0, i32 1
  %51 = load i32, ptr %50, align 4, !tbaa !57
  %52 = load i32, ptr %7, align 4, !tbaa !25
  %53 = add nsw i32 %52, 1
  %54 = mul nsw i32 %51, %53
  %55 = load i32, ptr %8, align 4, !tbaa !25
  %56 = sdiv i32 %54, %55
  store i32 %56, ptr %14, align 4, !tbaa !25
  call void @llvm.lifetime.start.p0(i64 4, ptr %15) #6
  %57 = load ptr, ptr %9, align 8, !tbaa !22
  %58 = getelementptr inbounds nuw %struct.ATiltContext, ptr %57, i32 0, i32 2
  %59 = load double, ptr %58, align 8, !tbaa !58
  %60 = fptrunc nsz double %59 to float
  store float %60, ptr %15, align 4, !tbaa !59
  call void @llvm.lifetime.start.p0(i64 4, ptr %16) #6
  %61 = load i32, ptr %13, align 4, !tbaa !25
  store i32 %61, ptr %16, align 4, !tbaa !25
  br label %62

62:                                               ; preds = %185, %4
  %63 = load i32, ptr %16, align 4, !tbaa !25
  %64 = load i32, ptr %14, align 4, !tbaa !25
  %65 = icmp slt i32 %63, %64
  br i1 %65, label %67, label %66

66:                                               ; preds = %62
  store i32 2, ptr %17, align 4
  call void @llvm.lifetime.end.p0(i64 4, ptr %16) #6
  br label %188

67:                                               ; preds = %62
  call void @llvm.lifetime.start.p0(i64 8, ptr %18) #6
  %68 = load ptr, ptr %12, align 8, !tbaa !28
  %69 = getelementptr inbounds nuw %struct.AVFrame, ptr %68, i32 0, i32 2
  %70 = load ptr, ptr %69, align 8, !tbaa !61
  %71 = load i32, ptr %16, align 4, !tbaa !25
  %72 = sext i32 %71 to i64
  %73 = getelementptr inbounds ptr, ptr %70, i64 %72
  %74 = load ptr, ptr %73, align 8, !tbaa !24
  store ptr %74, ptr %18, align 8, !tbaa !62
  call void @llvm.lifetime.start.p0(i64 8, ptr %19) #6
  %75 = load ptr, ptr %11, align 8, !tbaa !28
  %76 = getelementptr inbounds nuw %struct.AVFrame, ptr %75, i32 0, i32 2
  %77 = load ptr, ptr %76, align 8, !tbaa !61
  %78 = load i32, ptr %16, align 4, !tbaa !25
  %79 = sext i32 %78 to i64
  %80 = getelementptr inbounds ptr, ptr %77, i64 %79
  %81 = load ptr, ptr %80, align 8, !tbaa !24
  store ptr %81, ptr %19, align 8, !tbaa !62
  call void @llvm.lifetime.start.p0(i64 4, ptr %20) #6
  store i32 0, ptr %20, align 4, !tbaa !25
  br label %82

82:                                               ; preds = %181, %67
  %83 = load i32, ptr %20, align 4, !tbaa !25
  %84 = load ptr, ptr %9, align 8, !tbaa !22
  %85 = getelementptr inbounds nuw %struct.ATiltContext, ptr %84, i32 0, i32 5
  %86 = load i32, ptr %85, align 8, !tbaa !64
  %87 = icmp slt i32 %83, %86
  br i1 %87, label %89, label %88

88:                                               ; preds = %82
  store i32 5, ptr %17, align 4
  call void @llvm.lifetime.end.p0(i64 4, ptr %20) #6
  br label %184

89:                                               ; preds = %82
  call void @llvm.lifetime.start.p0(i64 8, ptr %21) #6
  %90 = load ptr, ptr %9, align 8, !tbaa !22
  %91 = getelementptr inbounds nuw %struct.ATiltContext, ptr %90, i32 0, i32 6
  %92 = load i32, ptr %20, align 4, !tbaa !25
  %93 = sext i32 %92 to i64
  %94 = getelementptr inbounds [30 x %struct.Coeffs], ptr %91, i64 0, i64 %93
  store ptr %94, ptr %21, align 8, !tbaa !65
  call void @llvm.lifetime.start.p0(i64 4, ptr %22) #6
  %95 = load ptr, ptr %21, align 8, !tbaa !65
  %96 = getelementptr inbounds nuw %struct.Coeffs, ptr %95, i32 0, i32 0
  %97 = load double, ptr %96, align 8, !tbaa !67
  %98 = fptrunc nsz double %97 to float
  store float %98, ptr %22, align 4, !tbaa !59
  call void @llvm.lifetime.start.p0(i64 4, ptr %23) #6
  %99 = load ptr, ptr %21, align 8, !tbaa !65
  %100 = getelementptr inbounds nuw %struct.Coeffs, ptr %99, i32 0, i32 1
  %101 = load double, ptr %100, align 8, !tbaa !69
  %102 = fptrunc nsz double %101 to float
  store float %102, ptr %23, align 4, !tbaa !59
  call void @llvm.lifetime.start.p0(i64 4, ptr %24) #6
  %103 = load ptr, ptr %21, align 8, !tbaa !65
  %104 = getelementptr inbounds nuw %struct.Coeffs, ptr %103, i32 0, i32 2
  %105 = load double, ptr %104, align 8, !tbaa !70
  %106 = fptrunc nsz double %105 to float
  store float %106, ptr %24, align 4, !tbaa !59
  call void @llvm.lifetime.start.p0(i64 4, ptr %25) #6
  %107 = load ptr, ptr %21, align 8, !tbaa !65
  %108 = getelementptr inbounds nuw %struct.Coeffs, ptr %107, i32 0, i32 3
  %109 = load double, ptr %108, align 8, !tbaa !71
  %110 = fptrunc nsz double %109 to float
  store float %110, ptr %25, align 4, !tbaa !59
  call void @llvm.lifetime.start.p0(i64 8, ptr %26) #6
  %111 = load ptr, ptr %9, align 8, !tbaa !22
  %112 = getelementptr inbounds nuw %struct.ATiltContext, ptr %111, i32 0, i32 7
  %113 = load ptr, ptr %112, align 8, !tbaa !53
  %114 = getelementptr inbounds nuw %struct.AVFrame, ptr %113, i32 0, i32 2
  %115 = load ptr, ptr %114, align 8, !tbaa !61
  %116 = load i32, ptr %16, align 4, !tbaa !25
  %117 = sext i32 %116 to i64
  %118 = getelementptr inbounds ptr, ptr %115, i64 %117
  %119 = load ptr, ptr %118, align 8, !tbaa !24
  %120 = load i32, ptr %20, align 4, !tbaa !25
  %121 = mul nsw i32 %120, 2
  %122 = sext i32 %121 to i64
  %123 = getelementptr inbounds float, ptr %119, i64 %122
  store ptr %123, ptr %26, align 8, !tbaa !62
  call void @llvm.lifetime.start.p0(i64 4, ptr %27) #6
  store i32 0, ptr %27, align 4, !tbaa !25
  br label %124

124:                                              ; preds = %177, %89
  %125 = load i32, ptr %27, align 4, !tbaa !25
  %126 = load ptr, ptr %12, align 8, !tbaa !28
  %127 = getelementptr inbounds nuw %struct.AVFrame, ptr %126, i32 0, i32 5
  %128 = load i32, ptr %127, align 8, !tbaa !39
  %129 = icmp slt i32 %125, %128
  br i1 %129, label %131, label %130

130:                                              ; preds = %124
  store i32 8, ptr %17, align 4
  call void @llvm.lifetime.end.p0(i64 4, ptr %27) #6
  br label %180

131:                                              ; preds = %124
  call void @llvm.lifetime.start.p0(i64 4, ptr %28) #6
  %132 = load i32, ptr %20, align 4, !tbaa !25
  %133 = icmp ne i32 %132, 0
  br i1 %133, label %134, label %140

134:                                              ; preds = %131
  %135 = load ptr, ptr %19, align 8, !tbaa !62
  %136 = load i32, ptr %27, align 4, !tbaa !25
  %137 = sext i32 %136 to i64
  %138 = getelementptr inbounds float, ptr %135, i64 %137
  %139 = load float, ptr %138, align 4, !tbaa !59
  br label %148

140:                                              ; preds = %131
  %141 = load ptr, ptr %18, align 8, !tbaa !62
  %142 = load i32, ptr %27, align 4, !tbaa !25
  %143 = sext i32 %142 to i64
  %144 = getelementptr inbounds float, ptr %141, i64 %143
  %145 = load float, ptr %144, align 4, !tbaa !59
  %146 = load float, ptr %15, align 4, !tbaa !59
  %147 = fmul nsz float %145, %146
  br label %148

148:                                              ; preds = %140, %134
  %149 = phi nsz float [ %139, %134 ], [ %147, %140 ]
  store float %149, ptr %28, align 4, !tbaa !59
  call void @llvm.lifetime.start.p0(i64 4, ptr %29) #6
  %150 = load float, ptr %28, align 4, !tbaa !59
  %151 = load float, ptr %24, align 4, !tbaa !59
  %152 = load ptr, ptr %26, align 8, !tbaa !62
  %153 = getelementptr inbounds float, ptr %152, i64 0
  %154 = load float, ptr %153, align 4, !tbaa !59
  %155 = load float, ptr %25, align 4, !tbaa !59
  %156 = fmul nsz float %154, %155
  %157 = call nsz float @llvm.fmuladd.f32(float %150, float %151, float %156)
  %158 = load ptr, ptr %26, align 8, !tbaa !62
  %159 = getelementptr inbounds float, ptr %158, i64 1
  %160 = load float, ptr %159, align 4, !tbaa !59
  %161 = load float, ptr %23, align 4, !tbaa !59
  %162 = fneg nsz float %160
  %163 = call nsz float @llvm.fmuladd.f32(float %162, float %161, float %157)
  store float %163, ptr %29, align 4, !tbaa !59
  %164 = load float, ptr %28, align 4, !tbaa !59
  %165 = load ptr, ptr %26, align 8, !tbaa !62
  %166 = getelementptr inbounds float, ptr %165, i64 0
  store float %164, ptr %166, align 4, !tbaa !59
  %167 = load float, ptr %29, align 4, !tbaa !59
  %168 = load ptr, ptr %26, align 8, !tbaa !62
  %169 = getelementptr inbounds float, ptr %168, i64 1
  store float %167, ptr %169, align 4, !tbaa !59
  %170 = load float, ptr %29, align 4, !tbaa !59
  %171 = load float, ptr %22, align 4, !tbaa !59
  %172 = fmul nsz float %170, %171
  %173 = load ptr, ptr %19, align 8, !tbaa !62
  %174 = load i32, ptr %27, align 4, !tbaa !25
  %175 = sext i32 %174 to i64
  %176 = getelementptr inbounds float, ptr %173, i64 %175
  store float %172, ptr %176, align 4, !tbaa !59
  call void @llvm.lifetime.end.p0(i64 4, ptr %29) #6
  call void @llvm.lifetime.end.p0(i64 4, ptr %28) #6
  br label %177

177:                                              ; preds = %148
  %178 = load i32, ptr %27, align 4, !tbaa !25
  %179 = add nsw i32 %178, 1
  store i32 %179, ptr %27, align 4, !tbaa !25
  br label %124, !llvm.loop !72

180:                                              ; preds = %130
  call void @llvm.lifetime.end.p0(i64 8, ptr %26) #6
  call void @llvm.lifetime.end.p0(i64 4, ptr %25) #6
  call void @llvm.lifetime.end.p0(i64 4, ptr %24) #6
  call void @llvm.lifetime.end.p0(i64 4, ptr %23) #6
  call void @llvm.lifetime.end.p0(i64 4, ptr %22) #6
  call void @llvm.lifetime.end.p0(i64 8, ptr %21) #6
  br label %181

181:                                              ; preds = %180
  %182 = load i32, ptr %20, align 4, !tbaa !25
  %183 = add nsw i32 %182, 1
  store i32 %183, ptr %20, align 4, !tbaa !25
  br label %82, !llvm.loop !74

184:                                              ; preds = %88
  call void @llvm.lifetime.end.p0(i64 8, ptr %19) #6
  call void @llvm.lifetime.end.p0(i64 8, ptr %18) #6
  br label %185

185:                                              ; preds = %184
  %186 = load i32, ptr %16, align 4, !tbaa !25
  %187 = add nsw i32 %186, 1
  store i32 %187, ptr %16, align 4, !tbaa !25
  br label %62, !llvm.loop !75

188:                                              ; preds = %66
  store i32 1, ptr %17, align 4
  call void @llvm.lifetime.end.p0(i64 4, ptr %15) #6
  call void @llvm.lifetime.end.p0(i64 4, ptr %14) #6
  call void @llvm.lifetime.end.p0(i64 4, ptr %13) #6
  call void @llvm.lifetime.end.p0(i64 8, ptr %12) #6
  call void @llvm.lifetime.end.p0(i64 8, ptr %11) #6
  call void @llvm.lifetime.end.p0(i64 8, ptr %10) #6
  call void @llvm.lifetime.end.p0(i64 8, ptr %9) #6
  ret i32 0
}