; Function Attrs: nofree norecurse nosync nounwind memory(readwrite, inaccessiblemem: none) uwtable
define internal noundef i32 @filter_channels_fltp(ptr noundef readonly captures(none) %0, ptr noundef readonly captures(none) %1, i32 noundef %2, i32 noundef %3) #5 {
  %5 = getelementptr inbounds nuw i8, ptr %0, i64 72
  %6 = load ptr, ptr %5, align 8, !tbaa !4
  %7 = load ptr, ptr %1, align 8, !tbaa !55
  %8 = getelementptr inbounds nuw i8, ptr %7, i64 388
  %9 = load i32, ptr %8, align 4, !tbaa !62
  %10 = mul nsw i32 %9, %2
  %11 = sdiv i32 %10, %3
  %12 = add nsw i32 %2, 1
  %13 = mul nsw i32 %9, %12
  %14 = sdiv i32 %13, %3
  %15 = getelementptr inbounds nuw i8, ptr %6, i64 16
  %16 = load double, ptr %15, align 8, !tbaa !63
  %17 = fptrunc nsz double %16 to float
  %18 = icmp slt i32 %11, %14
  br i1 %18, label %.lr.ph, label %._crit_edge

.lr.ph:                                           ; preds = %4
  %19 = getelementptr inbounds nuw i8, ptr %1, i64 8
  %20 = load ptr, ptr %19, align 8, !tbaa !57
  %21 = getelementptr inbounds nuw i8, ptr %7, i64 96
  %22 = load ptr, ptr %21, align 8, !tbaa !64
  %23 = getelementptr inbounds nuw i8, ptr %20, i64 96
  %24 = load ptr, ptr %23, align 8, !tbaa !64
  %25 = getelementptr inbounds nuw i8, ptr %6, i64 40
  %26 = load i32, ptr %25, align 8, !tbaa !32
  %27 = icmp sgt i32 %26, 0
  %28 = getelementptr inbounds nuw i8, ptr %6, i64 48
  br i1 %27, label %.lr.ph.split.us, label %._crit_edge

.lr.ph.split.us:                                  ; preds = %.lr.ph
  %29 = getelementptr inbounds nuw i8, ptr %7, i64 112
  %30 = getelementptr inbounds nuw i8, ptr %6, i64 1008
  %31 = load ptr, ptr %30, align 8, !tbaa !61
  %32 = getelementptr inbounds nuw i8, ptr %31, i64 96
  %33 = load ptr, ptr %32, align 8, !tbaa !64
  %34 = load i32, ptr %29, align 8, !tbaa !49
  %35 = icmp sgt i32 %34, 0
  br i1 %35, label %.lr.ph58.us.us.preheader, label %._crit_edge

.lr.ph58.us.us.preheader:                         ; preds = %.lr.ph.split.us
  %36 = sext i32 %11 to i64
  %wide.trip.count84 = sext i32 %14 to i64
  %wide.trip.count79 = zext nneg i32 %26 to i64
  %wide.trip.count = zext nneg i32 %34 to i64
  %wide.trip.count74 = zext nneg i32 %34 to i64
  br label %.lr.ph58.us.us

.lr.ph58.us.us:                                   ; preds = %.lr.ph58.us.us.preheader, %._crit_edge59.split.us.us.us
  %indvars.iv81 = phi i64 [ %36, %.lr.ph58.us.us.preheader ], [ %indvars.iv.next82, %._crit_edge59.split.us.us.us ]
  %37 = getelementptr inbounds ptr, ptr %22, i64 %indvars.iv81
  %38 = load ptr, ptr %37, align 8, !tbaa !65
  %39 = getelementptr inbounds ptr, ptr %24, i64 %indvars.iv81
  %40 = load ptr, ptr %39, align 8, !tbaa !65
  %41 = getelementptr inbounds ptr, ptr %33, i64 %indvars.iv81
  %42 = load ptr, ptr %41, align 8, !tbaa !65
  br label %.lr.ph.us.us.us

.lr.ph.us.us.us:                                  ; preds = %._crit_edge.us.us.us, %.lr.ph58.us.us
  %indvars.iv76 = phi i64 [ %indvars.iv.next77, %._crit_edge.us.us.us ], [ 0, %.lr.ph58.us.us ]
  %43 = getelementptr inbounds nuw [30 x %struct.Coeffs], ptr %28, i64 0, i64 %indvars.iv76
  %44 = load double, ptr %43, align 8, !tbaa !43
  %45 = fptrunc nsz double %44 to float
  %46 = getelementptr inbounds nuw i8, ptr %43, i64 8
  %47 = load double, ptr %46, align 8, !tbaa !42
  %48 = fptrunc nsz double %47 to float
  %49 = getelementptr inbounds nuw i8, ptr %43, i64 16
  %50 = load double, ptr %49, align 8, !tbaa !41
  %51 = fptrunc nsz double %50 to float
  %52 = getelementptr inbounds nuw i8, ptr %43, i64 24
  %53 = load double, ptr %52, align 8, !tbaa !39
  %54 = fptrunc nsz double %53 to float
  %.idx = shl nuw nsw i64 %indvars.iv76, 3
  %55 = getelementptr inbounds nuw i8, ptr %42, i64 %.idx
  %.not.us.us.us = icmp eq i64 %indvars.iv76, 0
  %56 = getelementptr inbounds nuw i8, ptr %55, i64 4
  br i1 %.not.us.us.us, label %.lr.ph.split.us.us.us.us, label %.lr.ph.split.us62.us.us

.lr.ph.split.us62.us.us:                          ; preds = %.lr.ph.us.us.us, %.lr.ph.split.us62.us.us
  %indvars.iv = phi i64 [ %indvars.iv.next, %.lr.ph.split.us62.us.us ], [ 0, %.lr.ph.us.us.us ]
  %57 = getelementptr inbounds nuw float, ptr %40, i64 %indvars.iv
  %58 = load float, ptr %57, align 4, !tbaa !66
  %59 = load float, ptr %55, align 4, !tbaa !66
  %60 = fmul nsz float %59, %54
  %61 = tail call nsz float @llvm.fmuladd.f32(float %58, float %51, float %60)
  %62 = load float, ptr %56, align 4, !tbaa !66
  %63 = fneg nsz float %62
  %64 = tail call nsz float @llvm.fmuladd.f32(float %63, float %48, float %61)
  store float %58, ptr %55, align 4, !tbaa !66
  store float %64, ptr %56, align 4, !tbaa !66
  %65 = fmul nsz float %64, %45
  store float %65, ptr %57, align 4, !tbaa !66
  %indvars.iv.next = add nuw nsw i64 %indvars.iv, 1
  %exitcond.not = icmp eq i64 %indvars.iv.next, %wide.trip.count
  br i1 %exitcond.not, label %._crit_edge.us.us.us, label %.lr.ph.split.us62.us.us, !llvm.loop !68

._crit_edge.us.us.us:                             ; preds = %.lr.ph.split.us62.us.us, %.lr.ph.split.us.us.us.us
  %indvars.iv.next77 = add nuw nsw i64 %indvars.iv76, 1
  %exitcond80.not = icmp eq i64 %indvars.iv.next77, %wide.trip.count79
  br i1 %exitcond80.not, label %._crit_edge59.split.us.us.us, label %.lr.ph.us.us.us, !llvm.loop !69

.lr.ph.split.us.us.us.us:                         ; preds = %.lr.ph.us.us.us, %.lr.ph.split.us.us.us.us
  %indvars.iv71 = phi i64 [ %indvars.iv.next72, %.lr.ph.split.us.us.us.us ], [ 0, %.lr.ph.us.us.us ]
  %66 = getelementptr inbounds nuw float, ptr %38, i64 %indvars.iv71
  %67 = load float, ptr %66, align 4, !tbaa !66
  %68 = fmul nsz float %67, %17
  %69 = load float, ptr %55, align 4, !tbaa !66
  %70 = fmul nsz float %69, %54
  %71 = tail call nsz float @llvm.fmuladd.f32(float %68, float %51, float %70)
  %72 = load float, ptr %56, align 4, !tbaa !66
  %73 = fneg nsz float %72
  %74 = tail call nsz float @llvm.fmuladd.f32(float %73, float %48, float %71)
  store float %68, ptr %55, align 4, !tbaa !66
  store float %74, ptr %56, align 4, !tbaa !66
  %75 = fmul nsz float %74, %45
  %76 = getelementptr inbounds nuw float, ptr %40, i64 %indvars.iv71
  store float %75, ptr %76, align 4, !tbaa !66
  %indvars.iv.next72 = add nuw nsw i64 %indvars.iv71, 1
  %exitcond75.not = icmp eq i64 %indvars.iv.next72, %wide.trip.count74
  br i1 %exitcond75.not, label %._crit_edge.us.us.us, label %.lr.ph.split.us.us.us.us, !llvm.loop !68

._crit_edge59.split.us.us.us:                     ; preds = %._crit_edge.us.us.us
  %indvars.iv.next82 = add nsw i64 %indvars.iv81, 1
  %exitcond85.not = icmp eq i64 %indvars.iv.next82, %wide.trip.count84
  br i1 %exitcond85.not, label %._crit_edge, label %.lr.ph58.us.us, !llvm.loop !70

._crit_edge:                                      ; preds = %._crit_edge59.split.us.us.us, %.lr.ph.split.us, %.lr.ph, %4
  ret i32 0
}